; Function Attrs: nounwind uwtable
define void @Abc_AigFree(ptr noundef captures(none) %0) local_unnamed_addr #0 {
  %2 = getelementptr inbounds nuw i8, ptr %0, i64 72
  %3 = load ptr, ptr %2, align 8
  %.not = icmp eq ptr %3, null
  br i1 %.not, label %8, label %4

4:                                                ; preds = %1
  %5 = getelementptr inbounds nuw i8, ptr %3, i64 8
  %6 = load ptr, ptr %5, align 8
  %.not.i = icmp eq ptr %6, null
  br i1 %.not.i, label %Vec_PtrFree.exit, label %7

7:                                                ; preds = %4
  tail call void @free(ptr noundef nonnull %6) #21
  br label %Vec_PtrFree.exit

Vec_PtrFree.exit:                                 ; preds = %4, %7
  tail call void @free(ptr noundef nonnull %3) #21
  br label %8

8:                                                ; preds = %Vec_PtrFree.exit, %1
  %9 = getelementptr inbounds nuw i8, ptr %0, i64 80
  %10 = load ptr, ptr %9, align 8
  %.not17 = icmp eq ptr %10, null
  br i1 %.not17, label %15, label %11

11:                                               ; preds = %8
  %12 = getelementptr inbounds nuw i8, ptr %10, i64 8
  %13 = load ptr, ptr %12, align 8
  %.not.i20 = icmp eq ptr %13, null
  br i1 %.not.i20, label %Vec_PtrFree.exit21, label %14

14:                                               ; preds = %11
  tail call void @free(ptr noundef nonnull %13) #21
  br label %Vec_PtrFree.exit21

Vec_PtrFree.exit21:                               ; preds = %11, %14
  tail call void @free(ptr noundef nonnull %10) #21
  br label %15

15:                                               ; preds = %Vec_PtrFree.exit21, %8
  %16 = getelementptr inbounds nuw i8, ptr %0, i64 56
  %17 = load ptr, ptr %16, align 8
  %18 = getelementptr i8, ptr %17, i64 4
  %.val11.i = load i32, ptr %18, align 4
  %19 = icmp sgt i32 %.val11.i, 0
  br i1 %19, label %.lr.ph.i, label %.critedge.i

.lr.ph.i:                                         ; preds = %15
  %20 = getelementptr i8, ptr %17, i64 8
  br label %21

21:                                               ; preds = %28, %.lr.ph.i
  %.val14.i = phi i32 [ %.val11.i, %.lr.ph.i ], [ %.val.i, %28 ]
  %indvars.iv.i = phi i64 [ 0, %.lr.ph.i ], [ %indvars.iv.next.i, %28 ]
  %.val8.i = load ptr, ptr %20, align 8
  %22 = getelementptr inbounds nuw ptr, ptr %.val8.i, i64 %indvars.iv.i
  %23 = load ptr, ptr %22, align 8
  %.not.i22 = icmp eq ptr %23, null
  br i1 %.not.i22, label %28, label %24

24:                                               ; preds = %21
  %25 = getelementptr inbounds nuw i8, ptr %23, i64 8
  %26 = load ptr, ptr %25, align 8
  %.not.i.i = icmp eq ptr %26, null
  br i1 %.not.i.i, label %Vec_PtrFree.exit.i, label %27

27:                                               ; preds = %24
  tail call void @free(ptr noundef nonnull %26) #21
  br label %Vec_PtrFree.exit.i

Vec_PtrFree.exit.i:                               ; preds = %27, %24
  tail call void @free(ptr noundef nonnull %23) #21
  %.val.pre.i = load i32, ptr %18, align 4
  br label %28

28:                                               ; preds = %Vec_PtrFree.exit.i, %21
  %.val.i = phi i32 [ %.val14.i, %21 ], [ %.val.pre.i, %Vec_PtrFree.exit.i ]
  %indvars.iv.next.i = add nuw nsw i64 %indvars.iv.i, 1
  %29 = sext i32 %.val.i to i64
  %30 = icmp slt i64 %indvars.iv.next.i, %29
  br i1 %30, label %21, label %.critedge.i, !llvm.loop !7

.critedge.i:                                      ; preds = %28, %15
  %31 = getelementptr inbounds nuw i8, ptr %17, i64 8
  %32 = load ptr, ptr %31, align 8
  %.not.i9.i = icmp eq ptr %32, null
  br i1 %.not.i9.i, label %Vec_VecFree.exit, label %33

33:                                               ; preds = %.critedge.i
  tail call void @free(ptr noundef nonnull %32) #21
  br label %Vec_VecFree.exit

Vec_VecFree.exit:                                 ; preds = %.critedge.i, %33
  tail call void @free(ptr noundef nonnull %17) #21
  %34 = getelementptr inbounds nuw i8, ptr %0, i64 64
  %35 = load ptr, ptr %34, align 8
  %36 = getelementptr i8, ptr %35, i64 4
  %.val11.i23 = load i32, ptr %36, align 4
  %37 = icmp sgt i32 %.val11.i23, 0
  br i1 %37, label %.lr.ph.i26, label %.critedge.i24

.lr.ph.i26:                                       ; preds = %Vec_VecFree.exit
  %38 = getelementptr i8, ptr %35, i64 8
  br label %39

39:                                               ; preds = %46, %.lr.ph.i26
  %.val14.i27 = phi i32 [ %.val11.i23, %.lr.ph.i26 ], [ %.val.i34, %46 ]
  %indvars.iv.i28 = phi i64 [ 0, %.lr.ph.i26 ], [ %indvars.iv.next.i35, %46 ]
  %.val8.i29 = load ptr, ptr %38, align 8
  %40 = getelementptr inbounds nuw ptr, ptr %.val8.i29, i64 %indvars.iv.i28
  %41 = load ptr, ptr %40, align 8
  %.not.i30 = icmp eq ptr %41, null
  br i1 %.not.i30, label %46, label %42

42:                                               ; preds = %39
  %43 = getelementptr inbounds nuw i8, ptr %41, i64 8
  %44 = load ptr, ptr %43, align 8
  %.not.i.i31 = icmp eq ptr %44, null
  br i1 %.not.i.i31, label %Vec_PtrFree.exit.i32, label %45

45:                                               ; preds = %42
  tail call void @free(ptr noundef nonnull %44) #21
  br label %Vec_PtrFree.exit.i32

Vec_PtrFree.exit.i32:                             ; preds = %45, %42
  tail call void @free(ptr noundef nonnull %41) #21
  %.val.pre.i33 = load i32, ptr %36, align 4
  br label %46

46:                                               ; preds = %Vec_PtrFree.exit.i32, %39
  %.val.i34 = phi i32 [ %.val14.i27, %39 ], [ %.val.pre.i33, %Vec_PtrFree.exit.i32 ]
  %indvars.iv.next.i35 = add nuw nsw i64 %indvars.iv.i28, 1
  %47 = sext i32 %.val.i34 to i64
  %48 = icmp slt i64 %indvars.iv.next.i35, %47
  br i1 %48, label %39, label %.critedge.i24, !llvm.loop !7

.critedge.i24:                                    ; preds = %46, %Vec_VecFree.exit
  %49 = getelementptr inbounds nuw i8, ptr %35, i64 8
  %50 = load ptr, ptr %49, align 8
  %.not.i9.i25 = icmp eq ptr %50, null
  br i1 %.not.i9.i25, label %Vec_VecFree.exit36, label %51

51:                                               ; preds = %.critedge.i24
  tail call void @free(ptr noundef nonnull %50) #21
  br label %Vec_VecFree.exit36

Vec_VecFree.exit36:                               ; preds = %.critedge.i24, %51
  tail call void @free(ptr noundef nonnull %35) #21
  %52 = getelementptr inbounds nuw i8, ptr %0, i64 40
  %53 = load ptr, ptr %52, align 8
  %54 = getelementptr inbounds nuw i8, ptr %53, i64 8
  %55 = load ptr, ptr %54, align 8
  %.not.i37 = icmp eq ptr %55, null
  br i1 %.not.i37, label %Vec_PtrFree.exit38, label %56

56:                                               ; preds = %Vec_VecFree.exit36
  tail call void @free(ptr noundef nonnull %55) #21
  br label %Vec_PtrFree.exit38

Vec_PtrFree.exit38:                               ; preds = %Vec_VecFree.exit36, %56
  tail call void @free(ptr noundef nonnull %53) #21
  %57 = getelementptr inbounds nuw i8, ptr %0, i64 48
  %58 = load ptr, ptr %57, align 8
  %59 = getelementptr inbounds nuw i8, ptr %58, i64 8
  %60 = load ptr, ptr %59, align 8
  %.not.i39 = icmp eq ptr %60, null
  br i1 %.not.i39, label %Vec_PtrFree.exit40, label %61

61:                                               ; preds = %Vec_PtrFree.exit38
  tail call void @free(ptr noundef nonnull %60) #21
  br label %Vec_PtrFree.exit40

Vec_PtrFree.exit40:                               ; preds = %Vec_PtrFree.exit38, %61
  tail call void @free(ptr noundef nonnull %58) #21
  %62 = getelementptr inbounds nuw i8, ptr %0, i64 32
  %63 = load ptr, ptr %62, align 8
  %64 = getelementptr inbounds nuw i8, ptr %63, i64 8
  %65 = load ptr, ptr %64, align 8
  %.not.i41 = icmp eq ptr %65, null
  br i1 %.not.i41, label %Vec_PtrFree.exit42, label %66

66:                                               ; preds = %Vec_PtrFree.exit40
  tail call void @free(ptr noundef nonnull %65) #21
  br label %Vec_PtrFree.exit42

Vec_PtrFree.exit42:                               ; preds = %Vec_PtrFree.exit40, %66
  tail call void @free(ptr noundef nonnull %63) #21
  %67 = getelementptr inbounds nuw i8, ptr %0, i64 16
  %68 = load ptr, ptr %67, align 8
  %.not18 = icmp eq ptr %68, null
  br i1 %.not18, label %70, label %69

69:                                               ; preds = %Vec_PtrFree.exit42
  tail call void @free(ptr noundef nonnull %68) #21
  br label %70

70:                                               ; preds = %Vec_PtrFree.exit42, %69
  tail call void @free(ptr noundef nonnull %0) #21
  ret void
}